target datalayout = "e-m:e-p270:32:32-p271:32:32-p272:64:64-i64:64-i128:128-f80:128-n8:16:32:64-S128"
target triple = "x86_64-unknown-linux-gnu"

%struct.BootIndexProperty = type { ptr, ptr, ptr }

@.str.8 = private unnamed_addr constant [6 x i8] c"int32\00", align 1

; Function Attrs: nounwind sspstrong uwtable
define dso_local void @device_add_bootindex_property(ptr noundef %obj, ptr noundef %bootindex, ptr noundef %name, ptr noundef %suffix, ptr noundef %dev) #0 {
entry:
  %obj.addr = alloca ptr, align 8
  %bootindex.addr = alloca ptr, align 8
  %name.addr = alloca ptr, align 8
  %suffix.addr = alloca ptr, align 8
  %dev.addr = alloca ptr, align 8
  %prop = alloca ptr, align 8
  store ptr %obj, ptr %obj.addr, align 8
  store ptr %bootindex, ptr %bootindex.addr, align 8
  store ptr %name, ptr %name.addr, align 8
  store ptr %suffix, ptr %suffix.addr, align 8
  store ptr %dev, ptr %dev.addr, align 8
  %call = call noalias ptr @g_malloc0(i64 noundef 24) #10
  store ptr %call, ptr %prop, align 8
  %0 = load ptr, ptr %bootindex.addr, align 8
  %1 = load ptr, ptr %prop, align 8
  %bootindex1 = getelementptr inbounds %struct.BootIndexProperty, ptr %1, i32 0, i32 0
  store ptr %0, ptr %bootindex1, align 8
  %2 = load ptr, ptr %suffix.addr, align 8
  %3 = load ptr, ptr %prop, align 8
  %suffix2 = getelementptr inbounds %struct.BootIndexProperty, ptr %3, i32 0, i32 1
  store ptr %2, ptr %suffix2, align 8
  %4 = load ptr, ptr %dev.addr, align 8
  %5 = load ptr, ptr %prop, align 8
  %dev3 = getelementptr inbounds %struct.BootIndexProperty, ptr %5, i32 0, i32 2
  store ptr %4, ptr %dev3, align 8
  %6 = load ptr, ptr %obj.addr, align 8
  %7 = load ptr, ptr %name.addr, align 8
  %8 = load ptr, ptr %prop, align 8
  %call4 = call ptr @object_property_add(ptr noundef %6, ptr noundef %7, ptr noundef @.str.8, ptr noundef @device_get_bootindex, ptr noundef @device_set_bootindex, ptr noundef @property_release_bootindex, ptr noundef %8)
  %9 = load ptr, ptr %obj.addr, align 8
  %10 = load ptr, ptr %name.addr, align 8
  %call5 = call zeroext i1 @object_property_set_int(ptr noundef %9, ptr noundef %10, i64 noundef -1, ptr noundef null)
  ret void
}