; Function Attrs: nounwind sspstrong uwtable
define dso_local void @device_add_bootindex_property(ptr noundef %obj, ptr noundef %bootindex, ptr noundef %name, ptr noundef %suffix, ptr noundef %dev) local_unnamed_addr #1 {
entry:
  %call = tail call noalias dereferenceable_or_null(24) ptr @g_malloc0(i64 noundef 24) #16
  store ptr %bootindex, ptr %call, align 8
  %suffix2 = getelementptr inbounds nuw i8, ptr %call, i64 8
  store ptr %suffix, ptr %suffix2, align 8
  %dev3 = getelementptr inbounds nuw i8, ptr %call, i64 16
  store ptr %dev, ptr %dev3, align 8
  %call4 = tail call ptr @object_property_add(ptr noundef %obj, ptr noundef %name, ptr noundef nonnull @.str.8, ptr noundef nonnull @device_get_bootindex, ptr noundef nonnull @device_set_bootindex, ptr noundef nonnull @property_release_bootindex, ptr noundef nonnull %call) #11
  %call5 = tail call zeroext i1 @object_property_set_int(ptr noundef %obj, ptr noundef %name, i64 noundef -1, ptr noundef null) #11
  ret void
}